; Function Attrs: mustprogress uwtable
define void @_ZNK6icu_7520RemoveTransliterator19handleTransliterateERNS_11ReplaceableER14UTransPositiona(ptr nocapture nonnull readnone align 8 %this, ptr noundef nonnull align 8 dereferenceable(8) %text, ptr nocapture noundef nonnull align 4 dereferenceable(16) %index, i8 signext %0) unnamed_addr #1 align 2 personality ptr @__gxx_personality_v0 {
entry:
  %empty = alloca %"class.icu_75::UnicodeString", align 8
  store ptr getelementptr inbounds ({ [13 x ptr] }, ptr @_ZTVN6icu_7513UnicodeStringE, i64 0, i32 0, i64 2), ptr %empty, align 8
  %fUnion2.i = getelementptr inbounds i8, ptr %empty, i64 8
  store i16 2, ptr %fUnion2.i, align 8
  %start = getelementptr inbounds i8, ptr %index, i64 8
  %1 = load i32, ptr %start, align 4
  %limit = getelementptr inbounds i8, ptr %index, i64 12
  %2 = load i32, ptr %limit, align 4
  %vtable = load ptr, ptr %text, align 8
  %vfn = getelementptr inbounds i8, ptr %vtable, i64 32
  %3 = load ptr, ptr %vfn, align 8
  invoke void %3(ptr noundef nonnull align 8 dereferenceable(8) %text, i32 noundef %1, i32 noundef %2, ptr noundef nonnull align 8 dereferenceable(64) %empty)
          to label %invoke.cont unwind label %lpad

invoke.cont:                                      ; preds = %entry
  %4 = load i32, ptr %limit, align 4
  %5 = load i32, ptr %start, align 4
  %sub.neg = sub i32 %5, %4
  %contextLimit = getelementptr inbounds i8, ptr %index, i64 4
  %6 = load i32, ptr %contextLimit, align 4
  %sub4 = add i32 %sub.neg, %6
  store i32 %sub4, ptr %contextLimit, align 4
  store i32 %5, ptr %limit, align 4
  call void @_ZN6icu_7513UnicodeStringD1Ev(ptr noundef nonnull align 8 dereferenceable(64) %empty) #5
  ret void

lpad:                                             ; preds = %entry
  %7 = landingpad { ptr, i32 }
          cleanup
  call void @_ZN6icu_7513UnicodeStringD1Ev(ptr noundef nonnull align 8 dereferenceable(64) %empty) #5
  resume { ptr, i32 } %7
}